; Function Attrs: nounwind sspstrong uwtable
define dso_local i64 @rb_dir_getwd() local_unnamed_addr #0 {
  %1 = alloca i64, align 8
  %2 = tail call ptr @rb_filesystem_encoding() #22
  %3 = tail call i32 @rb_enc_to_index(ptr noundef %2) #23
  call void @llvm.lifetime.start.p0(i64 8, ptr nonnull %1) #22
  %4 = tail call i64 @rb_imemo_new(i32 noundef 8, i64 noundef 0, i64 noundef 40) #22
  store i64 %4, ptr %1, align 8, !tbaa !7
  %5 = tail call noalias nonnull ptr @ruby_getcwd() #22
  %6 = inttoptr i64 %4 to ptr
  %7 = getelementptr inbounds nuw i8, ptr %6, i64 16
  store ptr %5, ptr %7, align 8, !tbaa !11
  %8 = tail call i64 @rb_str_new_cstr(ptr noundef nonnull %5) #22
  call void @rb_free_tmp_buffer(ptr noundef nonnull %1) #22
  call void @llvm.lifetime.end.p0(i64 8, ptr nonnull %1) #22
  %cond = icmp eq i32 %3, 2
  %spec.store.select = select i1 %cond, i32 0, i32 %3
  %9 = call i64 @rb_enc_associate_index(i64 noundef %8, i32 noundef %spec.store.select) #22
  ret i64 %9
}